target datalayout = "e-m:e-p270:32:32-p271:32:32-p272:64:64-i64:64-i128:128-f80:128-n8:16:32:64-S128"
target triple = "x86_64-pc-linux-gnu"

%struct.ASN1_ITEM_st = type { i8, i64, ptr, i64, ptr, i64, ptr }
%struct.X509_req_st = type { ptr, ptr, ptr, i32 }
%struct.X509_req_info_st = type { %struct.ASN1_ENCODING_st, ptr, ptr, ptr, ptr }
%struct.ASN1_ENCODING_st = type { ptr, i64, i32 }
%struct.asn1_string_st = type { i32, i32, ptr, i64 }
%struct.x509_attributes_st = type { ptr, i32, %union.anon.0 }
%union.anon.0 = type { ptr }
%struct.asn1_type_st = type { i32, %union.anon.1 }
%union.anon.1 = type { ptr }

@X509_EXTENSIONS_it = external constant %struct.ASN1_ITEM_st, align 8

; Function Attrs: nounwind uwtable
define hidden i32 @X509_REQ_add_extensions_nid(ptr noundef %0, ptr noundef %1, i32 noundef %2) #0 {
  %4 = alloca i32, align 4
  %5 = alloca ptr, align 8
  %6 = alloca ptr, align 8
  %7 = alloca i32, align 4
  %8 = alloca ptr, align 8
  %9 = alloca ptr, align 8
  %10 = alloca i32, align 4
  store ptr %0, ptr %5, align 8, !tbaa !15
  store ptr %1, ptr %6, align 8, !tbaa !56
  store i32 %2, ptr %7, align 4, !tbaa !36
  call void @llvm.lifetime.start.p0(i64 8, ptr %8) #4
  store ptr null, ptr %8, align 8, !tbaa !43
  call void @llvm.lifetime.start.p0(i64 8, ptr %9) #4
  store ptr null, ptr %9, align 8, !tbaa !45
  %11 = call ptr @ASN1_TYPE_new()
  store ptr %11, ptr %8, align 8, !tbaa !43
  %12 = icmp ne ptr %11, null
  br i1 %12, label %13, label %18

13:                                               ; preds = %3
  %14 = call ptr @ASN1_STRING_new()
  %15 = load ptr, ptr %8, align 8, !tbaa !43
  %16 = getelementptr inbounds nuw %struct.asn1_type_st, ptr %15, i32 0, i32 1
  store ptr %14, ptr %16, align 8, !tbaa !35
  %17 = icmp ne ptr %14, null
  br i1 %17, label %19, label %18

18:                                               ; preds = %13, %3
  br label %82

19:                                               ; preds = %13
  %20 = load ptr, ptr %8, align 8, !tbaa !43
  %21 = getelementptr inbounds nuw %struct.asn1_type_st, ptr %20, i32 0, i32 0
  store i32 16, ptr %21, align 8, !tbaa !52
  %22 = load ptr, ptr %6, align 8, !tbaa !56
  %23 = load ptr, ptr %8, align 8, !tbaa !43
  %24 = getelementptr inbounds nuw %struct.asn1_type_st, ptr %23, i32 0, i32 1
  %25 = load ptr, ptr %24, align 8, !tbaa !35
  %26 = getelementptr inbounds nuw %struct.asn1_string_st, ptr %25, i32 0, i32 2
  %27 = call i32 @ASN1_item_i2d(ptr noundef %22, ptr noundef %26, ptr noundef @X509_EXTENSIONS_it)
  %28 = load ptr, ptr %8, align 8, !tbaa !43
  %29 = getelementptr inbounds nuw %struct.asn1_type_st, ptr %28, i32 0, i32 1
  %30 = load ptr, ptr %29, align 8, !tbaa !35
  %31 = getelementptr inbounds nuw %struct.asn1_string_st, ptr %30, i32 0, i32 0
  store i32 %27, ptr %31, align 8, !tbaa !32
  %32 = call ptr @X509_ATTRIBUTE_new()
  store ptr %32, ptr %9, align 8, !tbaa !45
  %33 = icmp ne ptr %32, null
  br i1 %33, label %35, label %34

34:                                               ; preds = %19
  br label %82

35:                                               ; preds = %19
  %36 = call ptr @sk_new_null()
  %37 = load ptr, ptr %9, align 8, !tbaa !45
  %38 = getelementptr inbounds nuw %struct.x509_attributes_st, ptr %37, i32 0, i32 2
  store ptr %36, ptr %38, align 8, !tbaa !35
  %39 = icmp ne ptr %36, null
  br i1 %39, label %41, label %40

40:                                               ; preds = %35
  br label %82

41:                                               ; preds = %35
  %42 = load ptr, ptr %9, align 8, !tbaa !45
  %43 = getelementptr inbounds nuw %struct.x509_attributes_st, ptr %42, i32 0, i32 2
  %44 = load ptr, ptr %43, align 8, !tbaa !35
  %45 = load ptr, ptr %8, align 8, !tbaa !43
  %46 = call i64 @sk_push(ptr noundef %44, ptr noundef %45)
  %47 = icmp ne i64 %46, 0
  br i1 %47, label %49, label %48

48:                                               ; preds = %41
  br label %82

49:                                               ; preds = %41
  store ptr null, ptr %8, align 8, !tbaa !43
  %50 = load ptr, ptr %9, align 8, !tbaa !45
  %51 = getelementptr inbounds nuw %struct.x509_attributes_st, ptr %50, i32 0, i32 1
  store i32 0, ptr %51, align 8, !tbaa !47
  %52 = load i32, ptr %7, align 4, !tbaa !36
  %53 = call ptr @OBJ_nid2obj(i32 noundef %52)
  %54 = load ptr, ptr %9, align 8, !tbaa !45
  %55 = getelementptr inbounds nuw %struct.x509_attributes_st, ptr %54, i32 0, i32 0
  store ptr %53, ptr %55, align 8, !tbaa !58
  %56 = load ptr, ptr %5, align 8, !tbaa !15
  %57 = getelementptr inbounds nuw %struct.X509_req_st, ptr %56, i32 0, i32 0
  %58 = load ptr, ptr %57, align 8, !tbaa !17
  %59 = getelementptr inbounds nuw %struct.X509_req_info_st, ptr %58, i32 0, i32 4
  %60 = load ptr, ptr %59, align 8, !tbaa !55
  %61 = icmp ne ptr %60, null
  br i1 %61, label %71, label %62

62:                                               ; preds = %49
  %63 = call ptr @sk_new_null()
  %64 = load ptr, ptr %5, align 8, !tbaa !15
  %65 = getelementptr inbounds nuw %struct.X509_req_st, ptr %64, i32 0, i32 0
  %66 = load ptr, ptr %65, align 8, !tbaa !17
  %67 = getelementptr inbounds nuw %struct.X509_req_info_st, ptr %66, i32 0, i32 4
  store ptr %63, ptr %67, align 8, !tbaa !55
  %68 = icmp ne ptr %63, null
  br i1 %68, label %70, label %69

69:                                               ; preds = %62
  br label %82

70:                                               ; preds = %62
  br label %71

71:                                               ; preds = %70, %49
  %72 = load ptr, ptr %5, align 8, !tbaa !15
  %73 = getelementptr inbounds nuw %struct.X509_req_st, ptr %72, i32 0, i32 0
  %74 = load ptr, ptr %73, align 8, !tbaa !17
  %75 = getelementptr inbounds nuw %struct.X509_req_info_st, ptr %74, i32 0, i32 4
  %76 = load ptr, ptr %75, align 8, !tbaa !55
  %77 = load ptr, ptr %9, align 8, !tbaa !45
  %78 = call i64 @sk_push(ptr noundef %76, ptr noundef %77)
  %79 = icmp ne i64 %78, 0
  br i1 %79, label %81, label %80

80:                                               ; preds = %71
  br label %82

81:                                               ; preds = %71
  store i32 1, ptr %4, align 4
  store i32 1, ptr %10, align 4
  br label %85

82:                                               ; preds = %80, %69, %48, %40, %34, %18
  %83 = load ptr, ptr %9, align 8, !tbaa !45
  call void @X509_ATTRIBUTE_free(ptr noundef %83)
  %84 = load ptr, ptr %8, align 8, !tbaa !43
  call void @ASN1_TYPE_free(ptr noundef %84)
  store i32 0, ptr %4, align 4
  store i32 1, ptr %10, align 4
  br label %85

85:                                               ; preds = %82, %81
  call void @llvm.lifetime.end.p0(i64 8, ptr %9) #4
  call void @llvm.lifetime.end.p0(i64 8, ptr %8) #4
  %86 = load i32, ptr %4, align 4
  ret i32 %86
}