; Function Attrs: nounwind uwtable
define hidden range(i32 0, 2) i32 @X509_REQ_add_extensions_nid(ptr noundef readonly captures(none) %0, ptr noundef %1, i32 noundef %2) local_unnamed_addr #0 {
  %4 = tail call ptr @ASN1_TYPE_new() #7
  %.not = icmp eq ptr %4, null
  br i1 %.not, label %31, label %5

5:                                                ; preds = %3
  %6 = tail call ptr @ASN1_STRING_new() #7
  %7 = getelementptr inbounds nuw i8, ptr %4, i64 8
  store ptr %6, ptr %7, align 8, !tbaa !26
  %.not23 = icmp eq ptr %6, null
  br i1 %.not23, label %31, label %8

8:                                                ; preds = %5
  store i32 16, ptr %4, align 8, !tbaa !40
  %9 = getelementptr inbounds nuw i8, ptr %6, i64 8
  %10 = tail call i32 @ASN1_item_i2d(ptr noundef %1, ptr noundef nonnull %9, ptr noundef nonnull @X509_EXTENSIONS_it) #7
  %11 = load ptr, ptr %7, align 8, !tbaa !26
  store i32 %10, ptr %11, align 8, !tbaa !23
  %12 = tail call ptr @X509_ATTRIBUTE_new() #7
  %.not24 = icmp eq ptr %12, null
  br i1 %.not24, label %31, label %13

13:                                               ; preds = %8
  %14 = tail call ptr @sk_new_null() #7
  %15 = getelementptr inbounds nuw i8, ptr %12, i64 16
  store ptr %14, ptr %15, align 8, !tbaa !26
  %.not25 = icmp eq ptr %14, null
  br i1 %.not25, label %31, label %16

16:                                               ; preds = %13
  %17 = tail call i64 @sk_push(ptr noundef nonnull %14, ptr noundef nonnull %4) #7
  %.not26 = icmp eq i64 %17, 0
  br i1 %.not26, label %31, label %18

18:                                               ; preds = %16
  %19 = getelementptr inbounds nuw i8, ptr %12, i64 8
  store i32 0, ptr %19, align 8, !tbaa !37
  %20 = tail call ptr @OBJ_nid2obj(i32 noundef %2) #7
  store ptr %20, ptr %12, align 8, !tbaa !43
  %21 = load ptr, ptr %0, align 8, !tbaa !6
  %22 = getelementptr inbounds nuw i8, ptr %21, i64 48
  %23 = load ptr, ptr %22, align 8, !tbaa !36
  %.not27 = icmp eq ptr %23, null
  br i1 %.not27, label %24, label %28

24:                                               ; preds = %18
  %25 = tail call ptr @sk_new_null() #7
  %26 = load ptr, ptr %0, align 8, !tbaa !6
  %27 = getelementptr inbounds nuw i8, ptr %26, i64 48
  store ptr %25, ptr %27, align 8, !tbaa !36
  %.not28 = icmp eq ptr %25, null
  br i1 %.not28, label %31, label %28

28:                                               ; preds = %24, %18
  %29 = phi ptr [ %25, %24 ], [ %23, %18 ]
  %30 = tail call i64 @sk_push(ptr noundef nonnull %29, ptr noundef nonnull %12) #7
  %.not29 = icmp eq i64 %30, 0
  br i1 %.not29, label %31, label %32

31:                                               ; preds = %28, %24, %16, %13, %8, %3, %5
  %.017 = phi ptr [ null, %28 ], [ null, %24 ], [ %4, %16 ], [ %4, %13 ], [ %4, %8 ], [ %4, %5 ], [ null, %3 ]
  %.0 = phi ptr [ %12, %28 ], [ %12, %24 ], [ %12, %16 ], [ %12, %13 ], [ null, %8 ], [ null, %5 ], [ null, %3 ]
  tail call void @X509_ATTRIBUTE_free(ptr noundef %.0) #7
  tail call void @ASN1_TYPE_free(ptr noundef %.017) #7
  br label %32

32:                                               ; preds = %28, %31
  %.018 = phi i32 [ 0, %31 ], [ 1, %28 ]
  ret i32 %.018
}